; Function Attrs: mustprogress nounwind uwtable
define hidden void @_ZN12MoveResolver11add_mappingEP8IntervalS1_(ptr noundef nonnull align 8 dereferenceable(380) %0, ptr noundef %1, ptr noundef %2) local_unnamed_addr #0 align 2 {
  %4 = getelementptr inbounds i8, ptr %0, i64 80
  %5 = load i32, ptr %4, align 8
  %6 = getelementptr inbounds i8, ptr %0, i64 84
  %7 = load i32, ptr %6, align 4
  %8 = icmp eq i32 %5, %7
  br i1 %8, label %9, label %_ZN26GrowableArrayWithAllocatorIP8Interval13GrowableArrayIS1_EE6appendERKS1_.exit

9:                                                ; preds = %3
  %10 = add nsw i32 %5, 1
  %11 = icmp sgt i32 %5, -1
  %12 = xor i32 %5, -2147483648
  %13 = and i32 %12, %10
  %14 = icmp eq i32 %13, 0
  %15 = and i1 %11, %14
  %16 = tail call range(i32 0, 33) i32 @llvm.ctlz.i32(i32 %10, i1 true)
  %17 = sub nuw nsw i32 32, %16
  %18 = shl nuw i32 1, %17
  %.0.i.i.i.i = select i1 %15, i32 %10, i32 %18
  tail call void @_ZN26GrowableArrayWithAllocatorIP8Interval13GrowableArrayIS1_EE9expand_toEi(ptr noundef nonnull align 8 dereferenceable(16) %4, i32 noundef %.0.i.i.i.i)
  %.pre.i = load i32, ptr %4, align 8
  br label %_ZN26GrowableArrayWithAllocatorIP8Interval13GrowableArrayIS1_EE6appendERKS1_.exit

_ZN26GrowableArrayWithAllocatorIP8Interval13GrowableArrayIS1_EE6appendERKS1_.exit: ; preds = %3, %9
  %19 = phi i32 [ %.pre.i, %9 ], [ %5, %3 ]
  %20 = add nsw i32 %19, 1
  store i32 %20, ptr %4, align 8
  %21 = getelementptr inbounds i8, ptr %0, i64 88
  %22 = load ptr, ptr %21, align 8
  %23 = sext i32 %19 to i64
  %24 = getelementptr inbounds ptr, ptr %22, i64 %23
  store ptr %1, ptr %24, align 8
  %25 = getelementptr inbounds i8, ptr %0, i64 104
  %26 = load i32, ptr %25, align 8
  %27 = getelementptr inbounds i8, ptr %0, i64 108
  %28 = load i32, ptr %27, align 4
  %29 = icmp eq i32 %26, %28
  br i1 %29, label %30, label %_ZN26GrowableArrayWithAllocatorI7LIR_Opr13GrowableArrayIS0_EE6appendERKS0_.exit

30:                                               ; preds = %_ZN26GrowableArrayWithAllocatorIP8Interval13GrowableArrayIS1_EE6appendERKS1_.exit
  %31 = add nsw i32 %26, 1
  %32 = icmp sgt i32 %26, -1
  %33 = xor i32 %26, -2147483648
  %34 = and i32 %33, %31
  %35 = icmp eq i32 %34, 0
  %36 = and i1 %32, %35
  %37 = tail call range(i32 0, 33) i32 @llvm.ctlz.i32(i32 %31, i1 true)
  %38 = sub nuw nsw i32 32, %37
  %39 = shl nuw i32 1, %38
  %.0.i.i.i.i1 = select i1 %36, i32 %31, i32 %39
  tail call void @_ZN26GrowableArrayWithAllocatorI7LIR_Opr13GrowableArrayIS0_EE9expand_toEi(ptr noundef nonnull align 8 dereferenceable(16) %25, i32 noundef %.0.i.i.i.i1)
  %.pre.i2 = load i32, ptr %25, align 8
  br label %_ZN26GrowableArrayWithAllocatorI7LIR_Opr13GrowableArrayIS0_EE6appendERKS0_.exit

_ZN26GrowableArrayWithAllocatorI7LIR_Opr13GrowableArrayIS0_EE6appendERKS0_.exit: ; preds = %_ZN26GrowableArrayWithAllocatorIP8Interval13GrowableArrayIS1_EE6appendERKS1_.exit, %30
  %40 = phi i32 [ %.pre.i2, %30 ], [ %26, %_ZN26GrowableArrayWithAllocatorIP8Interval13GrowableArrayIS1_EE6appendERKS1_.exit ]
  %41 = add nsw i32 %40, 1
  store i32 %41, ptr %25, align 8
  %42 = getelementptr inbounds i8, ptr %0, i64 112
  %43 = load ptr, ptr %42, align 8
  %44 = sext i32 %40 to i64
  %45 = getelementptr inbounds %class.LIR_Opr, ptr %43, i64 %44
  %46 = load i64, ptr @_ZN11LIR_OprFact10illegalOprE, align 8
  store i64 %46, ptr %45, align 8
  %47 = getelementptr inbounds i8, ptr %0, i64 128
  %48 = load i32, ptr %47, align 8
  %49 = getelementptr inbounds i8, ptr %0, i64 132
  %50 = load i32, ptr %49, align 4
  %51 = icmp eq i32 %48, %50
  br i1 %51, label %52, label %_ZN26GrowableArrayWithAllocatorIP8Interval13GrowableArrayIS1_EE6appendERKS1_.exit5

52:                                               ; preds = %_ZN26GrowableArrayWithAllocatorI7LIR_Opr13GrowableArrayIS0_EE6appendERKS0_.exit
  %53 = add nsw i32 %48, 1
  %54 = icmp sgt i32 %48, -1
  %55 = xor i32 %48, -2147483648
  %56 = and i32 %55, %53
  %57 = icmp eq i32 %56, 0
  %58 = and i1 %54, %57
  %59 = tail call range(i32 0, 33) i32 @llvm.ctlz.i32(i32 %53, i1 true)
  %60 = sub nuw nsw i32 32, %59
  %61 = shl nuw i32 1, %60
  %.0.i.i.i.i3 = select i1 %58, i32 %53, i32 %61
  tail call void @_ZN26GrowableArrayWithAllocatorIP8Interval13GrowableArrayIS1_EE9expand_toEi(ptr noundef nonnull align 8 dereferenceable(16) %47, i32 noundef %.0.i.i.i.i3)
  %.pre.i4 = load i32, ptr %47, align 8
  br label %_ZN26GrowableArrayWithAllocatorIP8Interval13GrowableArrayIS1_EE6appendERKS1_.exit5

_ZN26GrowableArrayWithAllocatorIP8Interval13GrowableArrayIS1_EE6appendERKS1_.exit5: ; preds = %_ZN26GrowableArrayWithAllocatorI7LIR_Opr13GrowableArrayIS0_EE6appendERKS0_.exit, %52
  %62 = phi i32 [ %.pre.i4, %52 ], [ %48, %_ZN26GrowableArrayWithAllocatorI7LIR_Opr13GrowableArrayIS0_EE6appendERKS0_.exit ]
  %63 = add nsw i32 %62, 1
  store i32 %63, ptr %47, align 8
  %64 = getelementptr inbounds i8, ptr %0, i64 136
  %65 = load ptr, ptr %64, align 8
  %66 = sext i32 %62 to i64
  %67 = getelementptr inbounds ptr, ptr %65, i64 %66
  store ptr %2, ptr %67, align 8
  ret void
}